target datalayout = "e-m:e-p270:32:32-p271:32:32-p272:64:64-i64:64-i128:128-f80:128-n8:16:32:64-S128"
target triple = "x86_64-pc-linux-gnu"

%struct.flag = type { ptr, ptr, i64, i64 }
%struct.archive_entry = type { ptr, ptr, i32, %struct.aest, i32, %struct.archive_mstring, i64, i64, %struct.archive_mstring, %struct.archive_mstring, %struct.archive_mstring, %struct.archive_mstring, %struct.archive_mstring, i8, ptr, i64, %struct.ae_digest, %struct.archive_acl, ptr, ptr, ptr, ptr, ptr, [12 x i8], i32 }
%struct.aest = type { i64, i32, i64, i32, i64, i32, i64, i32, i64, i64, i32, i64, i64, i32, i64, i64, i64, i32, i64, i64, i64 }
%struct.archive_mstring = type { %struct.archive_string, %struct.archive_string, %struct.archive_wstring, %struct.archive_string, i32 }
%struct.archive_wstring = type { ptr, i64, i64 }
%struct.archive_string = type { ptr, i64, i64 }
%struct.ae_digest = type { [16 x i8], [20 x i8], [20 x i8], [32 x i8], [48 x i8], [64 x i8] }
%struct.archive_acl = type { i32, ptr, ptr, i32, ptr, ptr, i32 }

; Function Attrs: nounwind uwtable
define internal ptr @ae_wcstofflags(ptr noundef %0, ptr noundef %1, ptr noundef %2) #0 {
  %4 = alloca ptr, align 8
  %5 = alloca ptr, align 8
  %6 = alloca ptr, align 8
  %7 = alloca ptr, align 8
  %8 = alloca ptr, align 8
  %9 = alloca ptr, align 8
  %10 = alloca i64, align 8
  %11 = alloca i64, align 8
  %12 = alloca ptr, align 8
  %13 = alloca i64, align 8
  %14 = alloca i64, align 8
  %15 = alloca i32, align 4
  store ptr %0, ptr %4, align 8, !tbaa !79
  store ptr %1, ptr %5, align 8, !tbaa !54
  store ptr %2, ptr %6, align 8, !tbaa !54
  call void @llvm.lifetime.start.p0(i64 8, ptr %7) #13
  call void @llvm.lifetime.start.p0(i64 8, ptr %8) #13
  call void @llvm.lifetime.start.p0(i64 8, ptr %9) #13
  call void @llvm.lifetime.start.p0(i64 8, ptr %10) #13
  call void @llvm.lifetime.start.p0(i64 8, ptr %11) #13
  call void @llvm.lifetime.start.p0(i64 8, ptr %12) #13
  store i64 0, ptr %11, align 8, !tbaa !27
  store i64 0, ptr %10, align 8, !tbaa !27
  %16 = load ptr, ptr %4, align 8, !tbaa !79
  store ptr %16, ptr %7, align 8, !tbaa !79
  store ptr null, ptr %12, align 8, !tbaa !79
  br label %17

17:                                               ; preds = %31, %3
  %18 = load ptr, ptr %7, align 8, !tbaa !79
  %19 = load i32, ptr %18, align 4, !tbaa !32
  %20 = icmp eq i32 %19, 9
  br i1 %20, label %29, label %21

21:                                               ; preds = %17
  %22 = load ptr, ptr %7, align 8, !tbaa !79
  %23 = load i32, ptr %22, align 4, !tbaa !32
  %24 = icmp eq i32 %23, 32
  br i1 %24, label %29, label %25

25:                                               ; preds = %21
  %26 = load ptr, ptr %7, align 8, !tbaa !79
  %27 = load i32, ptr %26, align 4, !tbaa !32
  %28 = icmp eq i32 %27, 44
  br label %29

29:                                               ; preds = %25, %21, %17
  %30 = phi i1 [ true, %21 ], [ true, %17 ], [ %28, %25 ]
  br i1 %30, label %31, label %34

31:                                               ; preds = %29
  %32 = load ptr, ptr %7, align 8, !tbaa !79
  %33 = getelementptr inbounds nuw i32, ptr %32, i32 1
  store ptr %33, ptr %7, align 8, !tbaa !79
  br label %17, !llvm.loop !100

34:                                               ; preds = %29
  br label %35

35:                                               ; preds = %163, %34
  %36 = load ptr, ptr %7, align 8, !tbaa !79
  %37 = load i32, ptr %36, align 4, !tbaa !32
  %38 = icmp ne i32 %37, 0
  br i1 %38, label %39, label %164

39:                                               ; preds = %35
  call void @llvm.lifetime.start.p0(i64 8, ptr %13) #13
  %40 = load ptr, ptr %7, align 8, !tbaa !79
  store ptr %40, ptr %8, align 8, !tbaa !79
  br label %41

41:                                               ; preds = %59, %39
  %42 = load ptr, ptr %8, align 8, !tbaa !79
  %43 = load i32, ptr %42, align 4, !tbaa !32
  %44 = icmp ne i32 %43, 0
  br i1 %44, label %45, label %57

45:                                               ; preds = %41
  %46 = load ptr, ptr %8, align 8, !tbaa !79
  %47 = load i32, ptr %46, align 4, !tbaa !32
  %48 = icmp ne i32 %47, 9
  br i1 %48, label %49, label %57

49:                                               ; preds = %45
  %50 = load ptr, ptr %8, align 8, !tbaa !79
  %51 = load i32, ptr %50, align 4, !tbaa !32
  %52 = icmp ne i32 %51, 32
  br i1 %52, label %53, label %57

53:                                               ; preds = %49
  %54 = load ptr, ptr %8, align 8, !tbaa !79
  %55 = load i32, ptr %54, align 4, !tbaa !32
  %56 = icmp ne i32 %55, 44
  br label %57

57:                                               ; preds = %53, %49, %45, %41
  %58 = phi i1 [ false, %49 ], [ false, %45 ], [ false, %41 ], [ %56, %53 ]
  br i1 %58, label %59, label %62

59:                                               ; preds = %57
  %60 = load ptr, ptr %8, align 8, !tbaa !79
  %61 = getelementptr inbounds nuw i32, ptr %60, i32 1
  store ptr %61, ptr %8, align 8, !tbaa !79
  br label %41, !llvm.loop !101

62:                                               ; preds = %57
  %63 = load ptr, ptr %8, align 8, !tbaa !79
  %64 = load ptr, ptr %7, align 8, !tbaa !79
  %65 = ptrtoint ptr %63 to i64
  %66 = ptrtoint ptr %64 to i64
  %67 = sub i64 %65, %66
  %68 = sdiv exact i64 %67, 4
  store i64 %68, ptr %13, align 8, !tbaa !27
  store ptr @fileflags, ptr %9, align 8, !tbaa !68
  br label %69

69:                                               ; preds = %131, %62
  %70 = load ptr, ptr %9, align 8, !tbaa !68
  %71 = getelementptr inbounds nuw %struct.flag, ptr %70, i32 0, i32 1
  %72 = load ptr, ptr %71, align 8, !tbaa !102
  %73 = icmp ne ptr %72, null
  br i1 %73, label %74, label %134

74:                                               ; preds = %69
  call void @llvm.lifetime.start.p0(i64 8, ptr %14) #13
  %75 = load ptr, ptr %9, align 8, !tbaa !68
  %76 = getelementptr inbounds nuw %struct.flag, ptr %75, i32 0, i32 1
  %77 = load ptr, ptr %76, align 8, !tbaa !102
  %78 = call i64 @wcslen(ptr noundef %77) #19
  store i64 %78, ptr %14, align 8, !tbaa !27
  %79 = load i64, ptr %13, align 8, !tbaa !27
  %80 = load i64, ptr %14, align 8, !tbaa !27
  %81 = icmp eq i64 %79, %80
  br i1 %81, label %82, label %101

82:                                               ; preds = %74
  %83 = load ptr, ptr %7, align 8, !tbaa !79
  %84 = load ptr, ptr %9, align 8, !tbaa !68
  %85 = getelementptr inbounds nuw %struct.flag, ptr %84, i32 0, i32 1
  %86 = load ptr, ptr %85, align 8, !tbaa !102
  %87 = load i64, ptr %13, align 8, !tbaa !27
  %88 = call i32 @wmemcmp(ptr noundef %83, ptr noundef %86, i64 noundef %87) #19
  %89 = icmp eq i32 %88, 0
  br i1 %89, label %90, label %101

90:                                               ; preds = %82
  %91 = load ptr, ptr %9, align 8, !tbaa !68
  %92 = getelementptr inbounds nuw %struct.flag, ptr %91, i32 0, i32 2
  %93 = load i64, ptr %92, align 8, !tbaa !72
  %94 = load i64, ptr %11, align 8, !tbaa !27
  %95 = or i64 %94, %93
  store i64 %95, ptr %11, align 8, !tbaa !27
  %96 = load ptr, ptr %9, align 8, !tbaa !68
  %97 = getelementptr inbounds nuw %struct.flag, ptr %96, i32 0, i32 3
  %98 = load i64, ptr %97, align 8, !tbaa !73
  %99 = load i64, ptr %10, align 8, !tbaa !27
  %100 = or i64 %99, %98
  store i64 %100, ptr %10, align 8, !tbaa !27
  store i32 8, ptr %15, align 4
  br label %128

101:                                              ; preds = %82, %74
  %102 = load i64, ptr %13, align 8, !tbaa !27
  %103 = load i64, ptr %14, align 8, !tbaa !27
  %104 = sub i64 %103, 2
  %105 = icmp eq i64 %102, %104
  br i1 %105, label %106, label %126

106:                                              ; preds = %101
  %107 = load ptr, ptr %7, align 8, !tbaa !79
  %108 = load ptr, ptr %9, align 8, !tbaa !68
  %109 = getelementptr inbounds nuw %struct.flag, ptr %108, i32 0, i32 1
  %110 = load ptr, ptr %109, align 8, !tbaa !102
  %111 = getelementptr inbounds i32, ptr %110, i64 2
  %112 = load i64, ptr %13, align 8, !tbaa !27
  %113 = call i32 @wmemcmp(ptr noundef %107, ptr noundef %111, i64 noundef %112) #19
  %114 = icmp eq i32 %113, 0
  br i1 %114, label %115, label %126

115:                                              ; preds = %106
  %116 = load ptr, ptr %9, align 8, !tbaa !68
  %117 = getelementptr inbounds nuw %struct.flag, ptr %116, i32 0, i32 2
  %118 = load i64, ptr %117, align 8, !tbaa !72
  %119 = load i64, ptr %10, align 8, !tbaa !27
  %120 = or i64 %119, %118
  store i64 %120, ptr %10, align 8, !tbaa !27
  %121 = load ptr, ptr %9, align 8, !tbaa !68
  %122 = getelementptr inbounds nuw %struct.flag, ptr %121, i32 0, i32 3
  %123 = load i64, ptr %122, align 8, !tbaa !73
  %124 = load i64, ptr %11, align 8, !tbaa !27
  %125 = or i64 %124, %123
  store i64 %125, ptr %11, align 8, !tbaa !27
  store i32 8, ptr %15, align 4
  br label %128

126:                                              ; preds = %106, %101
  br label %127

127:                                              ; preds = %126
  store i32 0, ptr %15, align 4
  br label %128

128:                                              ; preds = %127, %115, %90
  call void @llvm.lifetime.end.p0(i64 8, ptr %14) #13
  %129 = load i32, ptr %15, align 4
  switch i32 %129, label %178 [
    i32 0, label %130
    i32 8, label %134
  ]

130:                                              ; preds = %128
  br label %131

131:                                              ; preds = %130
  %132 = load ptr, ptr %9, align 8, !tbaa !68
  %133 = getelementptr inbounds nuw %struct.flag, ptr %132, i32 1
  store ptr %133, ptr %9, align 8, !tbaa !68
  br label %69, !llvm.loop !103

134:                                              ; preds = %128, %69
  %135 = load ptr, ptr %9, align 8, !tbaa !68
  %136 = getelementptr inbounds nuw %struct.flag, ptr %135, i32 0, i32 1
  %137 = load ptr, ptr %136, align 8, !tbaa !102
  %138 = icmp eq ptr %137, null
  br i1 %138, label %139, label %144

139:                                              ; preds = %134
  %140 = load ptr, ptr %12, align 8, !tbaa !79
  %141 = icmp eq ptr %140, null
  br i1 %141, label %142, label %144

142:                                              ; preds = %139
  %143 = load ptr, ptr %7, align 8, !tbaa !79
  store ptr %143, ptr %12, align 8, !tbaa !79
  br label %144

144:                                              ; preds = %142, %139, %134
  %145 = load ptr, ptr %8, align 8, !tbaa !79
  store ptr %145, ptr %7, align 8, !tbaa !79
  br label %146

146:                                              ; preds = %160, %144
  %147 = load ptr, ptr %7, align 8, !tbaa !79
  %148 = load i32, ptr %147, align 4, !tbaa !32
  %149 = icmp eq i32 %148, 9
  br i1 %149, label %158, label %150

150:                                              ; preds = %146
  %151 = load ptr, ptr %7, align 8, !tbaa !79
  %152 = load i32, ptr %151, align 4, !tbaa !32
  %153 = icmp eq i32 %152, 32
  br i1 %153, label %158, label %154

154:                                              ; preds = %150
  %155 = load ptr, ptr %7, align 8, !tbaa !79
  %156 = load i32, ptr %155, align 4, !tbaa !32
  %157 = icmp eq i32 %156, 44
  br label %158

158:                                              ; preds = %154, %150, %146
  %159 = phi i1 [ true, %150 ], [ true, %146 ], [ %157, %154 ]
  br i1 %159, label %160, label %163

160:                                              ; preds = %158
  %161 = load ptr, ptr %7, align 8, !tbaa !79
  %162 = getelementptr inbounds nuw i32, ptr %161, i32 1
  store ptr %162, ptr %7, align 8, !tbaa !79
  br label %146, !llvm.loop !104

163:                                              ; preds = %158
  call void @llvm.lifetime.end.p0(i64 8, ptr %13) #13
  br label %35, !llvm.loop !105

164:                                              ; preds = %35
  %165 = load ptr, ptr %5, align 8, !tbaa !54
  %166 = icmp ne ptr %165, null
  br i1 %166, label %167, label %170

167:                                              ; preds = %164
  %168 = load i64, ptr %10, align 8, !tbaa !27
  %169 = load ptr, ptr %5, align 8, !tbaa !54
  store i64 %168, ptr %169, align 8, !tbaa !27
  br label %170

170:                                              ; preds = %167, %164
  %171 = load ptr, ptr %6, align 8, !tbaa !54
  %172 = icmp ne ptr %171, null
  br i1 %172, label %173, label %176

173:                                              ; preds = %170
  %174 = load i64, ptr %11, align 8, !tbaa !27
  %175 = load ptr, ptr %6, align 8, !tbaa !54
  store i64 %174, ptr %175, align 8, !tbaa !27
  br label %176

176:                                              ; preds = %173, %170
  %177 = load ptr, ptr %12, align 8, !tbaa !79
  store i32 1, ptr %15, align 4
  call void @llvm.lifetime.end.p0(i64 8, ptr %12) #13
  call void @llvm.lifetime.end.p0(i64 8, ptr %11) #13
  call void @llvm.lifetime.end.p0(i64 8, ptr %10) #13
  call void @llvm.lifetime.end.p0(i64 8, ptr %9) #13
  call void @llvm.lifetime.end.p0(i64 8, ptr %8) #13
  call void @llvm.lifetime.end.p0(i64 8, ptr %7) #13
  ret ptr %177

178:                                              ; preds = %128
  unreachable
}

; Function Attrs: nounwind uwtable
define dso_local ptr @archive_entry_copy_fflags_text_w(ptr noundef %0, ptr noundef %1) #0 {
  %3 = alloca ptr, align 8
  %4 = alloca ptr, align 8
  store ptr %0, ptr %3, align 8, !tbaa !4
  store ptr %1, ptr %4, align 8, !tbaa !79
  %5 = load ptr, ptr %3, align 8, !tbaa !4
  %6 = getelementptr inbounds nuw %struct.archive_entry, ptr %5, i32 0, i32 5
  %7 = load ptr, ptr %4, align 8, !tbaa !79
  %8 = call i32 @archive_mstring_copy_wcs(ptr noundef %6, ptr noundef %7)
  %9 = load ptr, ptr %4, align 8, !tbaa !79
  %10 = load ptr, ptr %3, align 8, !tbaa !4
  %11 = getelementptr inbounds nuw %struct.archive_entry, ptr %10, i32 0, i32 6
  %12 = load ptr, ptr %3, align 8, !tbaa !4
  %13 = getelementptr inbounds nuw %struct.archive_entry, ptr %12, i32 0, i32 7
  %14 = call ptr @ae_wcstofflags(ptr noundef %9, ptr noundef %11, ptr noundef %13)
  ret ptr %14
}