; Function Attrs: nounwind uwtable
define dso_local ptr @archive_entry_copy_fflags_text_w(ptr noundef %0, ptr noundef %1) local_unnamed_addr #0 {
  %3 = getelementptr inbounds nuw i8, ptr %0, i64 200
  %4 = tail call i32 @archive_mstring_copy_wcs(ptr noundef nonnull %3, ptr noundef %1) #21
  br label %5

5:                                                ; preds = %.critedge.i, %2
  %.055.i = phi ptr [ %1, %2 ], [ %7, %.critedge.i ]
  %6 = load i32, ptr %.055.i, align 4, !tbaa !28
  switch i32 %6, label %.preheader.i [
    i32 9, label %.critedge.i
    i32 32, label %.critedge.i
    i32 44, label %.critedge.i
    i32 0, label %ae_wcstofflags.exit
  ]

.critedge.i:                                      ; preds = %5, %5, %5
  %7 = getelementptr inbounds nuw i8, ptr %.055.i, i64 4
  br label %5, !llvm.loop !84

.loopexit.i:                                      ; preds = %50
  %or.cond.i = select i1 %.not8192.i, i1 %49, i1 false
  %spec.select.i = select i1 %or.cond.i, ptr %.1102.i, ptr %.057101.i
  %.not.i = icmp eq i32 %51, 0
  br i1 %.not.i, label %ae_wcstofflags.exit, label %.preheader.i, !llvm.loop !85

.preheader.i:                                     ; preds = %5, %.loopexit.i
  %8 = phi i32 [ %51, %.loopexit.i ], [ %6, %5 ]
  %.1102.i = phi ptr [ %.2.i, %.loopexit.i ], [ %.055.i, %5 ]
  %.057101.i = phi ptr [ %spec.select.i, %.loopexit.i ], [ null, %5 ]
  %.059100.i = phi i64 [ %.261.i, %.loopexit.i ], [ 0, %5 ]
  %.06299.i = phi i64 [ %.264.i, %.loopexit.i ], [ 0, %5 ]
  br label %9

9:                                                ; preds = %11, %.preheader.i
  %10 = phi i32 [ %.pre.i, %11 ], [ %8, %.preheader.i ]
  %.056.i = phi ptr [ %12, %11 ], [ %.1102.i, %.preheader.i ]
  switch i32 %10, label %11 [
    i32 0, label %.critedge2.i
    i32 9, label %.critedge2.i
    i32 32, label %.critedge2.i
    i32 44, label %.critedge2.i
  ]

11:                                               ; preds = %9
  %12 = getelementptr inbounds nuw i8, ptr %.056.i, i64 4
  %.pre.i = load i32, ptr %12, align 4, !tbaa !28
  br label %9, !llvm.loop !86

.critedge2.i:                                     ; preds = %9, %9, %9, %9
  %13 = ptrtoint ptr %.056.i to i64
  %14 = ptrtoint ptr %.1102.i to i64
  %15 = sub i64 %13, %14
  %16 = ashr exact i64 %15, 2
  br label %17

17:                                               ; preds = %45, %.critedge2.i
  %18 = phi ptr [ @.str.2, %.critedge2.i ], [ %48, %45 ]
  %.06696.i = phi ptr [ @fileflags, %.critedge2.i ], [ %46, %45 ]
  %19 = tail call i64 @wcslen(ptr noundef nonnull %18) #26
  %20 = icmp eq i64 %16, %19
  br i1 %20, label %21, label %31

21:                                               ; preds = %17
  %22 = tail call i32 @wmemcmp(ptr noundef nonnull %.1102.i, ptr noundef nonnull %18, i64 noundef %16) #26
  %23 = icmp eq i32 %22, 0
  br i1 %23, label %24, label %31

24:                                               ; preds = %21
  %25 = getelementptr inbounds nuw i8, ptr %.06696.i, i64 16
  %26 = load i64, ptr %25, align 8, !tbaa !58
  %27 = or i64 %26, %.059100.i
  %28 = getelementptr inbounds nuw i8, ptr %.06696.i, i64 24
  %29 = load i64, ptr %28, align 8, !tbaa !60
  %30 = or i64 %29, %.06299.i
  br label %.loopexit88.i

31:                                               ; preds = %21, %17
  %32 = add i64 %19, -2
  %33 = icmp eq i64 %16, %32
  br i1 %33, label %34, label %45

34:                                               ; preds = %31
  %35 = getelementptr inbounds nuw i8, ptr %18, i64 8
  %36 = tail call i32 @wmemcmp(ptr noundef nonnull %.1102.i, ptr noundef nonnull %35, i64 noundef %16) #26
  %37 = icmp eq i32 %36, 0
  br i1 %37, label %38, label %45

38:                                               ; preds = %34
  %39 = getelementptr inbounds nuw i8, ptr %.06696.i, i64 16
  %40 = load i64, ptr %39, align 8, !tbaa !58
  %41 = or i64 %40, %.06299.i
  %42 = getelementptr inbounds nuw i8, ptr %.06696.i, i64 24
  %43 = load i64, ptr %42, align 8, !tbaa !60
  %44 = or i64 %43, %.059100.i
  br label %.loopexit88.i

45:                                               ; preds = %34, %31
  %46 = getelementptr inbounds nuw i8, ptr %.06696.i, i64 32
  %47 = getelementptr inbounds nuw i8, ptr %.06696.i, i64 40
  %48 = load ptr, ptr %47, align 8, !tbaa !87
  %.not81.i = icmp eq ptr %48, null
  br i1 %.not81.i, label %.loopexit88.i, label %17, !llvm.loop !88

.loopexit88.i:                                    ; preds = %45, %38, %24
  %.not8192.i = phi i1 [ false, %24 ], [ false, %38 ], [ true, %45 ]
  %.264.i = phi i64 [ %30, %24 ], [ %41, %38 ], [ %.06299.i, %45 ]
  %.261.i = phi i64 [ %27, %24 ], [ %44, %38 ], [ %.059100.i, %45 ]
  %49 = icmp eq ptr %.057101.i, null
  br label %50

50:                                               ; preds = %.critedge5.i, %.loopexit88.i
  %.2.i = phi ptr [ %.056.i, %.loopexit88.i ], [ %52, %.critedge5.i ]
  %51 = load i32, ptr %.2.i, align 4, !tbaa !28
  switch i32 %51, label %.loopexit.i [
    i32 9, label %.critedge5.i
    i32 32, label %.critedge5.i
    i32 44, label %.critedge5.i
  ]

.critedge5.i:                                     ; preds = %50, %50, %50
  %52 = getelementptr inbounds nuw i8, ptr %.2.i, i64 4
  br label %50, !llvm.loop !89

ae_wcstofflags.exit:                              ; preds = %5, %.loopexit.i
  %.062.lcssa.i = phi i64 [ %.264.i, %.loopexit.i ], [ 0, %5 ]
  %.059.lcssa.i = phi i64 [ %.261.i, %.loopexit.i ], [ 0, %5 ]
  %.057.lcssa.i = phi ptr [ %spec.select.i, %.loopexit.i ], [ null, %5 ]
  %53 = getelementptr inbounds nuw i8, ptr %0, i64 312
  %54 = getelementptr inbounds nuw i8, ptr %0, i64 304
  store i64 %.062.lcssa.i, ptr %54, align 8, !tbaa !27
  store i64 %.059.lcssa.i, ptr %53, align 8, !tbaa !27
  ret ptr %.057.lcssa.i
}